Certificate:
    Data:
        Version: 1 (0x0)
        Serial Number:
            60:3a:2f:22:2f:b8:6d:e1:d1:29:c6:e3:6a:f0:bc:b3:f6:4f:d6:d4
        Signature Algorithm: sha256WithRSAEncryption
        Issuer: C = IT, ST = Italy, L = Salerno, O = bunch-linux-auth, OU = Bunch Linux Auth, CN = Bunch Linux, emailAddress = wael.karman@gmail.com
        Validity
            Not Before: Aug  3 20:04:18 2025 GMT
            Not After : Aug  1 20:04:18 2035 GMT
        Subject: C = IT, ST = Italy, L = Salerno, O = bunch-linux, OU = Bunch Linux, CN = Wael Karman, emailAddress = wael.karman@gmail.com
        Subject Public Key Info:
            Public Key Algorithm: rsaEncryption
                Public-Key: (2048 bit)
                Modulus:
                    00:be:af:a9:39:49:e7:8e:43:1b:2f:27:6c:13:cf:
                    f7:70:da:e8:df:ad:0c:09:5e:55:11:cf:c4:11:4f:
                    14:88:4a:97:d4:98:d2:9b:e8:60:ca:fb:ad:a2:01:
                    62:5a:27:10:51:1c:87:83:fd:50:08:61:56:cb:53:
                    15:f4:dc:01:8a:18:de:d3:0c:e5:63:88:d1:7f:ab:
                    5b:e0:6c:52:b9:c8:e8:9b:e0:77:9c:1c:02:85:e2:
                    5a:f2:2f:5c:c8:fb:e7:2b:a2:bd:70:23:fe:4c:13:
                    e9:9b:1b:d0:46:1f:a9:83:42:30:6d:de:ee:aa:73:
                    e3:1f:c4:b5:c4:97:78:0b:0e:d5:67:73:aa:a2:73:
                    95:2d:3b:57:6a:8f:c1:07:51:fc:43:ec:43:f4:f4:
                    27:7b:82:8c:59:06:0e:52:eb:59:2f:30:84:40:05:
                    b0:40:73:dc:45:e2:48:dc:12:59:38:9a:07:54:0e:
                    24:8b:3f:17:d7:e8:48:bf:0e:cc:e8:5f:38:ed:98:
                    45:25:8b:f0:fa:e0:48:8a:4e:2e:42:af:ac:ba:3e:
                    4e:52:32:e9:0c:da:37:e5:a8:d8:ee:fc:41:47:ad:
                    7c:68:54:85:e8:7c:83:1b:e5:64:7e:8f:4e:4e:b3:
                    26:d2:6b:ed:a2:56:3e:f6:ea:d7:d5:a5:53:ce:aa:
                    8b:f5
                Exponent: 65537 (0x10001)
    Signature Algorithm: sha256WithRSAEncryption
    Signature Value:
        2f:7d:d3:11:a5:69:03:23:99:e0:f6:67:01:0e:ac:76:a1:64:
        2c:8a:82:72:30:6d:81:15:52:aa:2b:58:29:53:f2:35:a3:0d:
        32:dc:01:2f:0a:c0:07:ce:6f:de:ec:af:5c:3c:0c:54:dd:e5:
        4f:c8:dd:a1:f5:aa:fc:7a:88:84:0e:cc:4b:5f:a0:0b:9f:06:
        db:7e:fd:97:21:95:94:f4:9c:a1:ba:5e:73:f4:4c:0f:4b:c1:
        9d:0b:c4:60:d6:0a:b3:33:25:3a:97:79:45:b6:1c:90:ba:6b:
        a2:bf:d2:fe:c8:7f:32:8e:7e:e9:b2:cf:b1:3b:f7:29:19:3a:
        09:ab:97:98:21:70:0f:cf:e9:f9:f2:b3:91:34:64:51:3f:2b:
        1c:f2:37:a2:8e:cf:9c:89:b5:e5:91:ed:af:3e:a0:28:43:ca:
        e7:eb:a0:ff:97:76:65:3c:61:a8:82:41:44:c4:7a:b9:c8:a8:
        ee:72:45:13:54:92:53:fa:1b:91:ce:bc:5a:af:a3:1c:a0:65:
        52:ce:47:42:38:2c:81:2e:94:f2:c4:5d:76:e6:3e:b6:31:9c:
        8b:12:da:8c:b4:e7:3d:2c:8f:77:ba:46:04:39:6f:d2:fc:7a:
        44:a4:5e:78:5b:aa:93:32:2b:44:f4:83:8d:4b:16:a8:c6:99:
        61:06:c5:7e
-----BEGIN CERTIFICATE-----
MIIDwTCCAqkCFGA6LyIvuG3h0SnG42rwvLP2T9bUMA0GCSqGSIb3DQEBCwUAMIGh
MQswCQYDVQQGEwJJVDEOMAwGA1UECAwFSXRhbHkxEDAOBgNVBAcMB1NhbGVybm8x
GTAXBgNVBAoMEGJ1bmNoLWxpbnV4LWF1dGgxGTAXBgNVBAsMEEJ1bmNoIExpbnV4
IEF1dGgxFDASBgNVBAMMC0J1bmNoIExpbnV4MSQwIgYJKoZIhvcNAQkBFhV3YWVs
Lmthcm1hbkBnbWFpbC5jb20wHhcNMjUwODAzMjAwNDE4WhcNMzUwODAxMjAwNDE4
WjCBlzELMAkGA1UEBhMCSVQxDjAMBgNVBAgMBUl0YWx5MRAwDgYDVQQHDAdTYWxl
cm5vMRQwEgYDVQQKDAtidW5jaC1saW51eDEUMBIGA1UECwwLQnVuY2ggTGludXgx
FDASBgNVBAMMC1dhZWwgS2FybWFuMSQwIgYJKoZIhvcNAQkBFhV3YWVsLmthcm1h
bkBnbWFpbC5jb20wggEiMA0GCSqGSIb3DQEBAQUAA4IBDwAwggEKAoIBAQC+r6k5
SeeOQxsvJ2wTz/dw2ujfrQwJXlURz8QRTxSISpfUmNKb6GDK+62iAWJaJxBRHIeD
/VAIYVbLUxX03AGKGN7TDOVjiNF/q1vgbFK5yOib4HecHAKF4lryL1zI++cror1w
I/5ME+mbG9BGH6mDQjBt3u6qc+MfxLXEl3gLDtVnc6qic5UtO1dqj8EHUfxD7EP0
9Cd7goxZBg5S61kvMIRABbBAc9xF4kjcElk4mgdUDiSLPxfX6Ei/DszoXzjtmEUl
i/D64EiKTi5Cr6y6Pk5SMukM2jflqNju/EFHrXxoVIXofIMb5WR+j05OsybSa+2i
Vj726tfVpVPOqov1AgMBAAEwDQYJKoZIhvcNAQELBQADggEBAC990xGlaQMjmeD2
ZwEOrHahZCyKgnIwbYEVUqorWClT8jWjDTLcAS8KwAfOb97sr1w8DFTd5U/I3aH1
qvx6iIQOzEtfoAufBtt+/ZchlZT0nKG6XnP0TA9LwZ0LxGDWCrMzJTqXeUW2HJC6
a6K/0v7IfzKOfumyz7E79ykZOgmrl5ghcA/P6fnys5E0ZFE/KxzyN6KOz5yJteWR
7a8+oChDyufroP+XdmU8YaiCQUTEernIqO5yRRNUklP6G5HOvFqvoxygZVLOR0I4
LIEulPLEXXbmPrYxnIsS2oy05z0sj3e6RgQ5b9L8ekSkXnhbqpMyK0T0g41LFqjG
mWEGxX4=
-----END CERTIFICATE-----
