Certificate:
    Data:
        Version: 3 (0x2)
        Serial Number:
            67:46:44:c9:90:9a:bd:75:8d:f9:60:22:eb:c5:af:86:19:c6:d4:f9
        Signature Algorithm: sha256WithRSAEncryption
        Issuer: C = IT, ST = Italy, L = Salerno, O = bunch-linux-auth, OU = Bunch Linux Auth, CN = Bunch Linux, emailAddress = wael.karman@gmail.com
        Validity
            Not Before: Aug  3 19:59:59 2025 GMT
            Not After : Aug  1 19:59:59 2035 GMT
        Subject: C = IT, ST = Italy, L = Salerno, O = bunch-linux-auth, OU = Bunch Linux Auth, CN = Bunch Linux, emailAddress = wael.karman@gmail.com
        Subject Public Key Info:
            Public Key Algorithm: rsaEncryption
                Public-Key: (2048 bit)
                Modulus:
                    00:c3:73:c2:9a:41:4c:71:31:95:a8:27:1e:6f:4f:
                    87:ef:f1:c4:a6:5f:0a:39:8b:a4:c8:06:ab:38:98:
                    7c:2a:64:e0:7e:43:e7:cd:f9:0d:99:1e:19:83:ff:
                    0c:5a:76:24:ad:d1:42:c8:e2:47:af:ac:3d:69:ad:
                    cb:f4:d1:ea:8a:ce:16:2f:9e:30:13:d9:c9:98:3d:
                    ba:85:e3:fe:2b:4c:11:69:b9:12:a1:b5:30:46:93:
                    6c:47:3e:65:63:23:86:08:52:a7:ff:39:bd:3f:de:
                    4d:3d:96:c7:71:1a:89:d1:d4:75:0e:51:33:42:9a:
                    4c:1b:b3:de:eb:1d:9f:48:20:24:15:25:62:ba:e0:
                    4f:6d:d0:15:5e:52:8b:18:fc:ca:ea:0d:bc:af:c5:
                    7c:3f:3b:64:4c:db:28:8d:c8:62:e7:40:d0:18:ce:
                    24:b5:21:b7:38:5d:ab:02:be:3b:ac:02:e2:bf:a8:
                    52:46:9f:22:2c:f6:44:1e:e3:87:e8:a1:97:d2:1f:
                    7a:4c:8c:04:06:c2:31:a2:4e:b0:a4:22:80:ea:67:
                    fe:3b:6f:da:f9:96:12:0f:8d:67:9f:35:17:61:f0:
                    04:9a:fc:2f:8e:b8:18:ed:d1:84:50:4c:3d:45:61:
                    41:31:a2:2c:cd:ba:a0:dc:80:52:40:7e:32:bf:ec:
                    7c:57
                Exponent: 65537 (0x10001)
        X509v3 extensions:
            X509v3 Subject Key Identifier: 
                8C:B7:CE:B6:D6:46:50:99:A3:5D:73:DA:ED:26:4C:6B:2B:BF:A6:D9
            X509v3 Authority Key Identifier: 
                8C:B7:CE:B6:D6:46:50:99:A3:5D:73:DA:ED:26:4C:6B:2B:BF:A6:D9
            X509v3 Basic Constraints: critical
                CA:TRUE
    Signature Algorithm: sha256WithRSAEncryption
    Signature Value:
        4e:77:2d:ab:3c:e6:07:3b:6d:1b:bf:6f:59:22:09:28:c9:e2:
        08:01:7c:8f:64:e2:0e:a9:02:38:ce:d9:77:dd:fe:8c:58:7a:
        9a:b9:aa:bf:f3:2f:cb:d9:a9:fc:a9:60:11:ac:b0:f0:e6:88:
        3f:30:64:68:f5:ba:cf:22:b8:de:45:d0:d5:15:09:e3:f3:16:
        a4:25:25:46:51:03:3c:80:43:09:7e:78:95:a8:d9:bd:06:4b:
        4b:75:35:88:9e:c6:87:b3:8b:56:dc:d2:68:f3:57:88:fc:4f:
        26:63:bf:a3:25:54:0b:26:8d:3b:c7:3d:e3:48:fc:5f:c6:f3:
        2f:a8:53:d8:7e:8e:4f:7e:e5:50:79:b9:a0:fb:a0:c8:5d:ee:
        2f:a7:b7:0c:41:35:c4:a7:a1:ed:a2:3f:3b:06:21:23:a7:ea:
        42:32:25:88:37:42:48:3b:55:a5:50:66:18:f5:93:81:5a:1c:
        28:12:63:ce:68:43:a2:ea:f9:60:1d:04:e4:67:71:44:ef:bc:
        b5:cf:13:fd:2d:2e:3c:35:21:b8:94:6b:2f:fd:55:08:0b:e1:
        5c:72:84:52:ee:a1:9a:c9:87:56:54:5e:95:f4:cd:fa:85:52:
        31:e6:2e:34:82:ad:97:74:79:71:14:44:97:fc:af:5f:67:a0:
        4f:75:f8:e0
-----BEGIN CERTIFICATE-----
MIIEJTCCAw2gAwIBAgIUZ0ZEyZCavXWN+WAi68WvhhnG1PkwDQYJKoZIhvcNAQEL
BQAwgaExCzAJBgNVBAYTAklUMQ4wDAYDVQQIDAVJdGFseTEQMA4GA1UEBwwHU2Fs
ZXJubzEZMBcGA1UECgwQYnVuY2gtbGludXgtYXV0aDEZMBcGA1UECwwQQnVuY2gg
TGludXggQXV0aDEUMBIGA1UEAwwLQnVuY2ggTGludXgxJDAiBgkqhkiG9w0BCQEW
FXdhZWwua2FybWFuQGdtYWlsLmNvbTAeFw0yNTA4MDMxOTU5NTlaFw0zNTA4MDEx
OTU5NTlaMIGhMQswCQYDVQQGEwJJVDEOMAwGA1UECAwFSXRhbHkxEDAOBgNVBAcM
B1NhbGVybm8xGTAXBgNVBAoMEGJ1bmNoLWxpbnV4LWF1dGgxGTAXBgNVBAsMEEJ1
bmNoIExpbnV4IEF1dGgxFDASBgNVBAMMC0J1bmNoIExpbnV4MSQwIgYJKoZIhvcN
AQkBFhV3YWVsLmthcm1hbkBnbWFpbC5jb20wggEiMA0GCSqGSIb3DQEBAQUAA4IB
DwAwggEKAoIBAQDDc8KaQUxxMZWoJx5vT4fv8cSmXwo5i6TIBqs4mHwqZOB+Q+fN
+Q2ZHhmD/wxadiSt0ULI4kevrD1prcv00eqKzhYvnjAT2cmYPbqF4/4rTBFpuRKh
tTBGk2xHPmVjI4YIUqf/Ob0/3k09lsdxGonR1HUOUTNCmkwbs97rHZ9IICQVJWK6
4E9t0BVeUosY/MrqDbyvxXw/O2RM2yiNyGLnQNAYziS1Ibc4XasCvjusAuK/qFJG
nyIs9kQe44fooZfSH3pMjAQGwjGiTrCkIoDqZ/47b9r5lhIPjWefNRdh8ASa/C+O
uBjt0YRQTD1FYUExoizNuqDcgFJAfjK/7HxXAgMBAAGjUzBRMB0GA1UdDgQWBBSM
t8621kZQmaNdc9rtJkxrK7+m2TAfBgNVHSMEGDAWgBSMt8621kZQmaNdc9rtJkxr
K7+m2TAPBgNVHRMBAf8EBTADAQH/MA0GCSqGSIb3DQEBCwUAA4IBAQBOdy2rPOYH
O20bv29ZIgkoyeIIAXyPZOIOqQI4ztl33f6MWHqauaq/8y/L2an8qWARrLDw5og/
MGRo9brPIrjeRdDVFQnj8xakJSVGUQM8gEMJfniVqNm9BktLdTWInsaHs4tW3NJo
81eI/E8mY7+jJVQLJo07xz3jSPxfxvMvqFPYfo5PfuVQebmg+6DIXe4vp7cMQTXE
p6Htoj87BiEjp+pCMiWIN0JIO1WlUGYY9ZOBWhwoEmPOaEOi6vlgHQTkZ3FE77y1
zxP9LS48NSG4lGsv/VUIC+FccoRS7qGayYdWVF6V9M36hVIx5i40gq2XdHlxFESX
/K9fZ6BPdfjg
-----END CERTIFICATE-----
