Certificate:
    Data:
        Version: 1 (0x0)
        Serial Number:
            34:8e:38:5c:a3:e0:b4:51:c0:5d:3f:76:22:3a:b9:7b:09:e2:d4:77
        Signature Algorithm: sha256WithRSAEncryption
        Issuer: C = IT, ST = Italy, L = Salerno, O = bunch-linux-auth, OU = Bunch Linux Auth, CN = Bunch Linux, emailAddress = wael.karman@gmail.com
        Validity
            Not Before: Jan  8 14:04:14 2024 GMT
            Not After : Jan  7 14:04:14 2025 GMT
        Subject: C = IT, ST = Italy, L = Salerno, O = bunch-linux, OU = Bunch Linux, CN = Wael Karman, emailAddress = wael.karman@gmail.com
        Subject Public Key Info:
            Public Key Algorithm: rsaEncryption
                RSA Public-Key: (2048 bit)
                Modulus:
                    00:b0:17:89:04:66:f4:7c:27:92:cd:08:6c:6b:45:
                    47:cb:3f:0f:4a:35:ef:40:7b:b7:75:6a:e2:9f:fa:
                    57:24:13:d0:c4:14:6e:63:d1:9e:6b:29:ec:6d:8d:
                    ec:9e:5a:34:f9:a2:37:e0:d1:6c:06:cb:1a:c5:70:
                    8e:20:c9:63:6c:06:78:99:ae:c7:e7:e5:db:8a:ae:
                    c2:16:82:ae:c0:b0:1f:1c:d4:d3:ef:55:7a:f4:3a:
                    fc:af:69:22:7d:d2:8e:f4:65:b0:ac:3d:23:7d:14:
                    52:21:b4:bc:5b:dc:b3:c7:b1:31:bf:af:69:59:da:
                    79:f8:be:c0:70:7a:d4:cd:be:15:fb:a7:ec:ba:3b:
                    45:12:30:be:d8:3a:79:fd:51:9e:28:0a:00:a1:c8:
                    c5:6c:fd:19:3c:8a:68:38:ed:93:62:fb:31:27:33:
                    a9:a8:5b:99:bd:1b:f0:34:9f:ae:7e:11:66:fe:33:
                    14:ac:dc:a2:72:57:c6:06:ef:ba:a6:1d:9b:a6:cf:
                    48:1d:06:c4:37:dd:c3:13:ba:22:bf:ed:e6:1f:ee:
                    dd:34:3b:ce:26:cb:c1:f9:c9:5c:2d:a6:d3:54:bc:
                    6b:8f:ea:dc:33:d6:32:1b:ee:3c:ab:f7:2f:48:49:
                    bb:5a:87:47:4b:f1:76:cc:ff:85:d7:75:3b:3d:aa:
                    f6:cb
                Exponent: 65537 (0x10001)
    Signature Algorithm: sha256WithRSAEncryption
         aa:80:97:70:45:e9:8e:fb:a8:57:58:4f:64:e9:c6:03:5c:f0:
         82:b1:27:ea:aa:70:a7:de:7d:8a:d0:fb:b9:5d:95:78:c7:3a:
         42:c0:e0:c1:86:6e:aa:b2:31:c3:59:34:ed:c9:19:19:b1:6d:
         ab:23:8a:9a:de:5e:d3:95:7b:9f:e6:7c:f6:14:1e:19:2b:58:
         08:77:85:ac:34:03:c1:b5:99:18:49:16:04:e8:8c:7a:de:5b:
         e6:c4:90:ef:b8:f5:51:51:6a:4a:fa:4e:6c:c8:a7:80:c4:b9:
         2b:cf:23:36:63:7a:ed:bd:8e:75:b7:28:55:88:dc:c2:c3:c7:
         90:81:be:ee:c3:e9:f6:63:3c:e9:3e:43:92:d0:66:f0:b2:46:
         ac:4c:15:24:dd:d5:c0:13:da:4f:64:f0:81:0f:52:1d:5d:7f:
         88:93:a3:3a:cd:a1:ed:65:98:98:e2:3c:13:17:f6:ac:45:28:
         03:02:7e:9f:f1:52:b7:3c:77:22:f7:53:4c:62:66:a4:88:29:
         d1:02:2d:49:4a:a2:9a:b0:0b:e9:06:a3:56:b7:0d:75:3d:7b:
         b7:a3:5c:fb:55:94:ca:dc:6a:7b:d0:07:98:65:64:d2:d3:64:
         f4:d5:ab:3a:22:2e:22:6c:55:9e:7e:7e:05:1f:ef:7b:87:2f:
         83:91:d6:b5
-----BEGIN CERTIFICATE-----
MIIDwTCCAqkCFDSOOFyj4LRRwF0/diI6uXsJ4tR3MA0GCSqGSIb3DQEBCwUAMIGh
MQswCQYDVQQGEwJJVDEOMAwGA1UECAwFSXRhbHkxEDAOBgNVBAcMB1NhbGVybm8x
GTAXBgNVBAoMEGJ1bmNoLWxpbnV4LWF1dGgxGTAXBgNVBAsMEEJ1bmNoIExpbnV4
IEF1dGgxFDASBgNVBAMMC0J1bmNoIExpbnV4MSQwIgYJKoZIhvcNAQkBFhV3YWVs
Lmthcm1hbkBnbWFpbC5jb20wHhcNMjQwMTA4MTQwNDE0WhcNMjUwMTA3MTQwNDE0
WjCBlzELMAkGA1UEBhMCSVQxDjAMBgNVBAgMBUl0YWx5MRAwDgYDVQQHDAdTYWxl
cm5vMRQwEgYDVQQKDAtidW5jaC1saW51eDEUMBIGA1UECwwLQnVuY2ggTGludXgx
FDASBgNVBAMMC1dhZWwgS2FybWFuMSQwIgYJKoZIhvcNAQkBFhV3YWVsLmthcm1h
bkBnbWFpbC5jb20wggEiMA0GCSqGSIb3DQEBAQUAA4IBDwAwggEKAoIBAQCwF4kE
ZvR8J5LNCGxrRUfLPw9KNe9Ae7d1auKf+lckE9DEFG5j0Z5rKextjeyeWjT5ojfg
0WwGyxrFcI4gyWNsBniZrsfn5duKrsIWgq7AsB8c1NPvVXr0OvyvaSJ90o70ZbCs
PSN9FFIhtLxb3LPHsTG/r2lZ2nn4vsBwetTNvhX7p+y6O0USML7YOnn9UZ4oCgCh
yMVs/Rk8img47ZNi+zEnM6moW5m9G/A0n65+EWb+MxSs3KJyV8YG77qmHZumz0gd
BsQ33cMTuiK/7eYf7t00O84my8H5yVwtptNUvGuP6twz1jIb7jyr9y9ISbtah0dL
8XbM/4XXdTs9qvbLAgMBAAEwDQYJKoZIhvcNAQELBQADggEBAKqAl3BF6Y77qFdY
T2TpxgNc8IKxJ+qqcKfefYrQ+7ldlXjHOkLA4MGGbqqyMcNZNO3JGRmxbasjipre
XtOVe5/mfPYUHhkrWAh3haw0A8G1mRhJFgTojHreW+bEkO+49VFRakr6TmzIp4DE
uSvPIzZjeu29jnW3KFWI3MLDx5CBvu7D6fZjPOk+Q5LQZvCyRqxMFSTd1cAT2k9k
8IEPUh1df4iTozrNoe1lmJjiPBMX9qxFKAMCfp/xUrc8dyL3U0xiZqSIKdECLUlK
opqwC+kGo1a3DXU9e7ejXPtVlMrcanvQB5hlZNLTZPTVqzoiLiJsVZ5+fgUf73uH
L4OR1rU=
-----END CERTIFICATE-----
