Certificate:
    Data:
        Version: 3 (0x2)
        Serial Number:
            4b:60:aa:2f:f5:b1:7e:bc:35:08:74:38:d8:6a:12:cd:ee:29:11:ec
        Signature Algorithm: sha256WithRSAEncryption
        Issuer: C = IT, ST = Italy, L = Salerno, O = bunch-linux-auth, OU = Bunch Linux Auth, CN = Bunch Linux, emailAddress = wael.karman@gmail.com
        Validity
            Not Before: Jan  8 13:56:23 2024 GMT
            Not After : Jan  7 13:56:23 2025 GMT
        Subject: C = IT, ST = Italy, L = Salerno, O = bunch-linux-auth, OU = Bunch Linux Auth, CN = Bunch Linux, emailAddress = wael.karman@gmail.com
        Subject Public Key Info:
            Public Key Algorithm: rsaEncryption
                RSA Public-Key: (2048 bit)
                Modulus:
                    00:de:12:64:c6:9e:4d:c9:bf:be:63:3d:8b:32:84:
                    cf:af:08:20:a4:ff:98:bb:2c:b6:18:08:7c:c9:b9:
                    fc:ac:07:9f:0c:5b:49:9a:c1:d2:a3:81:42:b6:33:
                    f1:9c:8f:70:ba:5f:09:09:4c:80:52:6f:5c:b5:bd:
                    4e:18:d5:c2:d6:ea:30:bb:c2:3d:e9:1a:12:b6:fc:
                    c9:ec:13:ca:72:0a:23:f7:09:80:db:82:b9:af:b5:
                    33:25:18:32:14:0d:12:66:b0:3f:5c:21:c2:4c:0c:
                    46:76:f9:3e:fd:84:6b:92:61:da:e7:4d:ed:ef:e5:
                    ed:51:c6:c1:3a:42:1c:05:32:f2:f8:96:a1:ed:12:
                    6c:59:73:86:5d:1e:69:73:c0:4b:1b:9a:fa:17:3a:
                    0c:f6:c9:c9:00:e8:5c:b2:15:a1:2a:5b:39:52:8f:
                    66:16:42:63:45:92:93:fb:b3:5c:d6:57:f6:9b:c7:
                    46:79:52:b9:88:79:ab:73:bd:69:e4:1c:75:5a:a0:
                    2c:1e:42:00:77:1b:12:05:61:9f:5d:4f:69:bc:f0:
                    04:d9:43:ba:2a:ad:72:31:1f:bc:d5:8c:f1:19:bd:
                    f8:3a:48:53:26:b7:a1:5f:45:2c:8a:c0:13:c1:41:
                    cb:c4:58:90:60:3c:7d:e1:41:47:b2:b3:84:d1:a8:
                    cd:15
                Exponent: 65537 (0x10001)
        X509v3 extensions:
            X509v3 Subject Key Identifier: 
                CD:4E:30:0B:E6:93:67:D7:DB:89:18:E9:04:CB:09:B7:7E:82:1A:08
            X509v3 Authority Key Identifier: 
                keyid:CD:4E:30:0B:E6:93:67:D7:DB:89:18:E9:04:CB:09:B7:7E:82:1A:08

            X509v3 Basic Constraints: critical
                CA:TRUE
    Signature Algorithm: sha256WithRSAEncryption
         20:f0:15:b7:c1:e8:ce:06:7f:29:55:52:57:e9:86:f0:e1:12:
         71:33:ac:8e:33:16:65:ba:2e:4a:60:d5:af:d2:66:3b:c0:5c:
         b0:96:e6:54:0d:83:90:65:bd:c6:b9:ce:42:28:ea:72:2c:11:
         06:34:76:6c:27:6b:aa:ee:24:79:84:08:0c:5f:2f:4b:81:75:
         89:fb:07:6b:06:b8:b0:d8:9c:76:cc:8f:29:ba:26:9f:e1:52:
         9e:d1:1a:9f:90:8e:a3:46:fb:be:94:0f:8c:0a:dd:cc:87:da:
         c9:c1:b1:49:6e:97:22:e2:47:f4:71:b2:98:3f:72:8c:f5:fc:
         38:cb:03:61:b9:03:9a:85:05:cf:e3:2f:87:32:4f:1a:fe:35:
         a5:62:95:36:cd:02:31:0b:e7:d2:2a:da:ab:07:e7:b1:3b:4e:
         7b:0a:6d:1f:a7:33:c0:92:df:71:b1:1a:ad:ba:1c:f5:a1:8d:
         b3:98:bd:c1:e4:00:49:77:9c:c1:4b:12:b3:91:41:76:64:26:
         55:21:de:ca:c8:52:d6:b1:1b:35:60:43:b0:4f:0d:b4:2d:81:
         de:01:ac:88:c6:f8:f5:e9:6e:51:d1:7c:d4:d3:fa:82:0a:c6:
         7c:d0:20:3c:d1:e6:d6:42:6b:77:fe:8e:05:e6:19:ab:0a:af:
         60:75:55:82
-----BEGIN CERTIFICATE-----
MIIEJTCCAw2gAwIBAgIUS2CqL/Wxfrw1CHQ42GoSze4pEewwDQYJKoZIhvcNAQEL
BQAwgaExCzAJBgNVBAYTAklUMQ4wDAYDVQQIDAVJdGFseTEQMA4GA1UEBwwHU2Fs
ZXJubzEZMBcGA1UECgwQYnVuY2gtbGludXgtYXV0aDEZMBcGA1UECwwQQnVuY2gg
TGludXggQXV0aDEUMBIGA1UEAwwLQnVuY2ggTGludXgxJDAiBgkqhkiG9w0BCQEW
FXdhZWwua2FybWFuQGdtYWlsLmNvbTAeFw0yNDAxMDgxMzU2MjNaFw0yNTAxMDcx
MzU2MjNaMIGhMQswCQYDVQQGEwJJVDEOMAwGA1UECAwFSXRhbHkxEDAOBgNVBAcM
B1NhbGVybm8xGTAXBgNVBAoMEGJ1bmNoLWxpbnV4LWF1dGgxGTAXBgNVBAsMEEJ1
bmNoIExpbnV4IEF1dGgxFDASBgNVBAMMC0J1bmNoIExpbnV4MSQwIgYJKoZIhvcN
AQkBFhV3YWVsLmthcm1hbkBnbWFpbC5jb20wggEiMA0GCSqGSIb3DQEBAQUAA4IB
DwAwggEKAoIBAQDeEmTGnk3Jv75jPYsyhM+vCCCk/5i7LLYYCHzJufysB58MW0ma
wdKjgUK2M/Gcj3C6XwkJTIBSb1y1vU4Y1cLW6jC7wj3pGhK2/MnsE8pyCiP3CYDb
grmvtTMlGDIUDRJmsD9cIcJMDEZ2+T79hGuSYdrnTe3v5e1RxsE6QhwFMvL4lqHt
EmxZc4ZdHmlzwEsbmvoXOgz2yckA6FyyFaEqWzlSj2YWQmNFkpP7s1zWV/abx0Z5
UrmIeatzvWnkHHVaoCweQgB3GxIFYZ9dT2m88ATZQ7oqrXIxH7zVjPEZvfg6SFMm
t6FfRSyKwBPBQcvEWJBgPH3hQUeys4TRqM0VAgMBAAGjUzBRMB0GA1UdDgQWBBTN
TjAL5pNn19uJGOkEywm3foIaCDAfBgNVHSMEGDAWgBTNTjAL5pNn19uJGOkEywm3
foIaCDAPBgNVHRMBAf8EBTADAQH/MA0GCSqGSIb3DQEBCwUAA4IBAQAg8BW3wejO
Bn8pVVJX6Ybw4RJxM6yOMxZlui5KYNWv0mY7wFywluZUDYOQZb3Guc5CKOpyLBEG
NHZsJ2uq7iR5hAgMXy9LgXWJ+wdrBriw2Jx2zI8puiaf4VKe0RqfkI6jRvu+lA+M
Ct3Mh9rJwbFJbpci4kf0cbKYP3KM9fw4ywNhuQOahQXP4y+HMk8a/jWlYpU2zQIx
C+fSKtqrB+exO057Cm0fpzPAkt9xsRqtuhz1oY2zmL3B5ABJd5zBSxKzkUF2ZCZV
Id7KyFLWsRs1YEOwTw20LYHeAayIxvj16W5R0XzU0/qCCsZ80CA80ebWQmt3/o4F
5hmrCq9gdVWC
-----END CERTIFICATE-----
